; ModuleID = 'source-C-CXX/60/101.cpp'
source_filename = "source-C-CXX/60/101.cpp"
target datalayout = "e-m:e-p270:32:32-p271:32:32-p272:64:64-i64:64-f80:128-n8:16:32:64-S128"
target triple = "x86_64-pc-linux-gnu"

%"class.std::ios_base::Init" = type { i8 }
%"class.std::basic_istream" = type { i32 (...)**, i64, %"class.std::basic_ios" }
%"class.std::basic_ios" = type { %"class.std::ios_base", %"class.std::basic_ostream"*, i8, i8, %"class.std::basic_streambuf"*, %"class.std::ctype"*, %"class.std::num_put"*, %"class.std::num_get"* }
%"class.std::ios_base" = type { i32 (...)**, i64, i64, i32, i32, i32, %"struct.std::ios_base::_Callback_list"*, %"struct.std::ios_base::_Words", [8 x %"struct.std::ios_base::_Words"], i32, %"struct.std::ios_base::_Words"*, %"class.std::locale" }
%"struct.std::ios_base::_Callback_list" = type { %"struct.std::ios_base::_Callback_list"*, void (i32, %"class.std::ios_base"*, i32)*, i32, i32 }
%"struct.std::ios_base::_Words" = type { i8*, i64 }
%"class.std::locale" = type { %"class.std::locale::_Impl"* }
%"class.std::locale::_Impl" = type { i32, %"class.std::locale::facet"**, i64, %"class.std::locale::facet"**, i8** }
%"class.std::locale::facet" = type <{ i32 (...)**, i32, [4 x i8] }>
%"class.std::basic_ostream" = type { i32 (...)**, %"class.std::basic_ios" }
%"class.std::basic_streambuf" = type { i32 (...)**, i8*, i8*, i8*, i8*, i8*, i8*, %"class.std::locale" }
%"class.std::ctype" = type <{ %"class.std::locale::facet.base", [4 x i8], %struct.__locale_struct*, i8, [7 x i8], i32*, i32*, i16*, i8, [256 x i8], [256 x i8], i8, [6 x i8] }>
%"class.std::locale::facet.base" = type <{ i32 (...)**, i32 }>
%struct.__locale_struct = type { [13 x %struct.__locale_data*], i16*, i32*, i32*, [13 x i8*] }
%struct.__locale_data = type opaque
%"class.std::num_put" = type { %"class.std::locale::facet.base", [4 x i8] }
%"class.std::num_get" = type { %"class.std::locale::facet.base", [4 x i8] }

@_ZStL8__ioinit = internal global %"class.std::ios_base::Init" zeroinitializer, align 1
@__dso_handle = external hidden global i8
@_ZSt3cin = external global %"class.std::basic_istream", align 8
@_ZSt4cout = external global %"class.std::basic_ostream", align 8
@llvm.global_ctors = appending global [1 x { i32, void ()*, i8* }] [{ i32, void ()*, i8* } { i32 65535, void ()* @_GLOBAL__sub_I_101.cpp, i8* null }]

declare void @_ZNSt8ios_base4InitC1Ev(%"class.std::ios_base::Init"* nonnull align 1 dereferenceable(1)) unnamed_addr #0

; Function Attrs: nounwind
declare void @_ZNSt8ios_base4InitD1Ev(%"class.std::ios_base::Init"* nonnull align 1 dereferenceable(1)) unnamed_addr #1

; Function Attrs: nofree nounwind
declare i32 @__cxa_atexit(void (i8*)*, i8*, i8*) local_unnamed_addr #2

; Function Attrs: mustprogress norecurse sspstrong uwtable
define dso_local i32 @main() local_unnamed_addr #3 {
  %1 = alloca i32, align 4
  %2 = alloca [1000 x i32], align 16
  %3 = bitcast i32* %1 to i8*
  call void @llvm.lifetime.start.p0i8(i64 4, i8* nonnull %3) #8
  %4 = call nonnull align 8 dereferenceable(16) %"class.std::basic_istream"* @_ZNSirsERi(%"class.std::basic_istream"* nonnull align 8 dereferenceable(16) @_ZSt3cin, i32* nonnull align 4 dereferenceable(4) %1)
  %5 = bitcast [1000 x i32]* %2 to i8*
  call void @llvm.lifetime.start.p0i8(i64 4000, i8* nonnull %5) #8
  %6 = load i32, i32* %1, align 4, !tbaa !5
  %7 = icmp sgt i32 %6, 0
  br i1 %7, label %10, label %57

8:                                                ; preds = %10
  %9 = icmp sgt i32 %15, 0
  br i1 %9, label %18, label %57

10:                                               ; preds = %0, %10
  %11 = phi i64 [ %14, %10 ], [ 0, %0 ]
  %12 = getelementptr inbounds [1000 x i32], [1000 x i32]* %2, i64 0, i64 %11
  %13 = call nonnull align 8 dereferenceable(16) %"class.std::basic_istream"* @_ZNSirsERi(%"class.std::basic_istream"* nonnull align 8 dereferenceable(16) @_ZSt3cin, i32* nonnull align 4 dereferenceable(4) %12)
  %14 = add nuw nsw i64 %11, 1
  %15 = load i32, i32* %1, align 4, !tbaa !5
  %16 = sext i32 %15 to i64
  %17 = icmp slt i64 %14, %16
  br i1 %17, label %10, label %8, !llvm.loop !9

18:                                               ; preds = %8, %49
  %19 = phi i64 [ %53, %49 ], [ 0, %8 ]
  %20 = getelementptr inbounds [1000 x i32], [1000 x i32]* %2, i64 0, i64 %19
  %21 = load i32, i32* %20, align 4, !tbaa !5
  %22 = call i32 @_Z3fbni(i32 %21)
  %23 = call nonnull align 8 dereferenceable(8) %"class.std::basic_ostream"* @_ZNSolsEi(%"class.std::basic_ostream"* nonnull align 8 dereferenceable(8) @_ZSt4cout, i32 %22)
  %24 = bitcast %"class.std::basic_ostream"* %23 to i8**
  %25 = load i8*, i8** %24, align 8, !tbaa !11
  %26 = getelementptr i8, i8* %25, i64 -24
  %27 = bitcast i8* %26 to i64*
  %28 = load i64, i64* %27, align 8
  %29 = bitcast %"class.std::basic_ostream"* %23 to i8*
  %30 = add nsw i64 %28, 240
  %31 = getelementptr inbounds i8, i8* %29, i64 %30
  %32 = bitcast i8* %31 to %"class.std::ctype"**
  %33 = load %"class.std::ctype"*, %"class.std::ctype"** %32, align 8, !tbaa !13
  %34 = icmp eq %"class.std::ctype"* %33, null
  br i1 %34, label %35, label %36

35:                                               ; preds = %18
  call void @_ZSt16__throw_bad_castv() #9
  unreachable

36:                                               ; preds = %18
  %37 = getelementptr inbounds %"class.std::ctype", %"class.std::ctype"* %33, i64 0, i32 8
  %38 = load i8, i8* %37, align 8, !tbaa !17
  %39 = icmp eq i8 %38, 0
  br i1 %39, label %43, label %40

40:                                               ; preds = %36
  %41 = getelementptr inbounds %"class.std::ctype", %"class.std::ctype"* %33, i64 0, i32 9, i64 10
  %42 = load i8, i8* %41, align 1, !tbaa !19
  br label %49

43:                                               ; preds = %36
  call void @_ZNKSt5ctypeIcE13_M_widen_initEv(%"class.std::ctype"* nonnull align 8 dereferenceable(570) %33)
  %44 = bitcast %"class.std::ctype"* %33 to i8 (%"class.std::ctype"*, i8)***
  %45 = load i8 (%"class.std::ctype"*, i8)**, i8 (%"class.std::ctype"*, i8)*** %44, align 8, !tbaa !11
  %46 = getelementptr inbounds i8 (%"class.std::ctype"*, i8)*, i8 (%"class.std::ctype"*, i8)** %45, i64 6
  %47 = load i8 (%"class.std::ctype"*, i8)*, i8 (%"class.std::ctype"*, i8)** %46, align 8
  %48 = call signext i8 %47(%"class.std::ctype"* nonnull align 8 dereferenceable(570) %33, i8 signext 10)
  br label %49

49:                                               ; preds = %40, %43
  %50 = phi i8 [ %42, %40 ], [ %48, %43 ]
  %51 = call nonnull align 8 dereferenceable(8) %"class.std::basic_ostream"* @_ZNSo3putEc(%"class.std::basic_ostream"* nonnull align 8 dereferenceable(8) %23, i8 signext %50)
  %52 = call nonnull align 8 dereferenceable(8) %"class.std::basic_ostream"* @_ZNSo5flushEv(%"class.std::basic_ostream"* nonnull align 8 dereferenceable(8) %51)
  %53 = add nuw nsw i64 %19, 1
  %54 = load i32, i32* %1, align 4, !tbaa !5
  %55 = sext i32 %54 to i64
  %56 = icmp slt i64 %53, %55
  br i1 %56, label %18, label %57, !llvm.loop !20

57:                                               ; preds = %49, %0, %8
  call void @llvm.lifetime.end.p0i8(i64 4000, i8* nonnull %5) #8
  call void @llvm.lifetime.end.p0i8(i64 4, i8* nonnull %3) #8
  ret i32 0
}

; Function Attrs: argmemonly mustprogress nofree nosync nounwind willreturn
declare void @llvm.lifetime.start.p0i8(i64 immarg, i8* nocapture) #4

declare nonnull align 8 dereferenceable(16) %"class.std::basic_istream"* @_ZNSirsERi(%"class.std::basic_istream"* nonnull align 8 dereferenceable(16), i32* nonnull align 4 dereferenceable(4)) local_unnamed_addr #0

declare nonnull align 8 dereferenceable(8) %"class.std::basic_ostream"* @_ZNSolsEi(%"class.std::basic_ostream"* nonnull align 8 dereferenceable(8), i32) local_unnamed_addr #0

; Function Attrs: mustprogress nofree nosync nounwind readnone sspstrong uwtable willreturn
define dso_local i32 @_Z3fbni(i32 %0) local_unnamed_addr #5 {
  %2 = add i32 %0, -1
  %3 = icmp ult i32 %2, 2
  br i1 %3, label %15, label %4

4:                                                ; preds = %1, %4
  %5 = phi i32 [ %11, %4 ], [ %2, %1 ]
  %6 = phi i32 [ %9, %4 ], [ %0, %1 ]
  %7 = phi i32 [ %10, %4 ], [ 0, %1 ]
  %8 = tail call i32 @_Z3fbni(i32 %5)
  %9 = add nsw i32 %6, -2
  %10 = add nsw i32 %8, %7
  %11 = add i32 %6, -3
  %12 = icmp ult i32 %11, 2
  br i1 %12, label %13, label %4

13:                                               ; preds = %4
  %14 = add i32 %10, 1
  br label %15

15:                                               ; preds = %13, %1
  %16 = phi i32 [ 1, %1 ], [ %14, %13 ]
  ret i32 %16
}

; Function Attrs: argmemonly mustprogress nofree nosync nounwind willreturn
declare void @llvm.lifetime.end.p0i8(i64 immarg, i8* nocapture) #4

declare nonnull align 8 dereferenceable(8) %"class.std::basic_ostream"* @_ZNSo3putEc(%"class.std::basic_ostream"* nonnull align 8 dereferenceable(8), i8 signext) local_unnamed_addr #0

declare nonnull align 8 dereferenceable(8) %"class.std::basic_ostream"* @_ZNSo5flushEv(%"class.std::basic_ostream"* nonnull align 8 dereferenceable(8)) local_unnamed_addr #0

; Function Attrs: noreturn
declare void @_ZSt16__throw_bad_castv() local_unnamed_addr #6

declare void @_ZNKSt5ctypeIcE13_M_widen_initEv(%"class.std::ctype"* nonnull align 8 dereferenceable(570)) local_unnamed_addr #0

; Function Attrs: sspstrong uwtable
define internal void @_GLOBAL__sub_I_101.cpp() #7 section ".text.startup" {
  tail call void @_ZNSt8ios_base4InitC1Ev(%"class.std::ios_base::Init"* nonnull align 1 dereferenceable(1) @_ZStL8__ioinit)
  %1 = tail call i32 @__cxa_atexit(void (i8*)* bitcast (void (%"class.std::ios_base::Init"*)* @_ZNSt8ios_base4InitD1Ev to void (i8*)*), i8* getelementptr inbounds (%"class.std::ios_base::Init", %"class.std::ios_base::Init"* @_ZStL8__ioinit, i64 0, i32 0), i8* nonnull @__dso_handle) #8
  ret void
}


!llvm.module.flags = !{!0, !1, !2, !3}
!llvm.ident = !{!4}

!0 = !{i32 1, !"wchar_size", i32 4}
!1 = !{i32 7, !"PIC Level", i32 2}
!2 = !{i32 7, !"PIE Level", i32 2}
!3 = !{i32 7, !"uwtable", i32 1}
!4 = !{!"clang version 13.0.0"}
!5 = !{!6, !6, i64 0}
!6 = !{!"int", !7, i64 0}
!7 = !{!"omnipotent char", !8, i64 0}
!8 = !{!"Simple C++ TBAA"}
!9 = distinct !{!9, !10}
!10 = !{!"llvm.loop.mustprogress"}
!11 = !{!12, !12, i64 0}
!12 = !{!"vtable pointer", !8, i64 0}
!13 = !{!14, !15, i64 240}
!14 = !{!"_ZTSSt9basic_iosIcSt11char_traitsIcEE", !15, i64 216, !7, i64 224, !16, i64 225, !15, i64 232, !15, i64 240, !15, i64 248, !15, i64 256}
!15 = !{!"any pointer", !7, i64 0}
!16 = !{!"bool", !7, i64 0}
!17 = !{!18, !7, i64 56}
!18 = !{!"_ZTSSt5ctypeIcE", !15, i64 16, !16, i64 24, !15, i64 32, !15, i64 40, !15, i64 48, !7, i64 56, !7, i64 57, !7, i64 313, !7, i64 569}
!19 = !{!7, !7, i64 0}
!20 = distinct !{!20, !10}
